target datalayout = "e-m:e-p270:32:32-p271:32:32-p272:64:64-i64:64-i128:128-f80:128-n8:16:32:64-S128"
target triple = "x86_64-unknown-linux-gnu"

%"class.QuantLib::SphereCylinderOptimizer" = type { double, double, double, double, double, double, double, double, i8, double }

; Function Attrs: mustprogress nounwind uwtable
define noundef zeroext i1 @_ZNK8QuantLib23SphereCylinderOptimizer22isIntersectionNonEmptyEv(ptr noundef nonnull align 8 dereferenceable(80) %this) #3 align 2 {
entry:
  %this.addr = alloca ptr, align 8
  store ptr %this, ptr %this.addr, align 8, !tbaa !3
  %this1 = load ptr, ptr %this.addr, align 8
  %nonEmpty_ = getelementptr inbounds nuw %"class.QuantLib::SphereCylinderOptimizer", ptr %this1, i32 0, i32 8
  %0 = load i8, ptr %nonEmpty_, align 8, !tbaa !18, !range !25, !noundef !26
  %loadedv = trunc i8 %0 to i1
  ret i1 %loadedv
}

; Function Attrs: mustprogress nounwind uwtable
define noundef zeroext i1 @_ZNK8QuantLib23SphereCylinderOptimizer16findByProjectionERdS1_S1_(ptr noundef nonnull align 8 dereferenceable(80) %this, ptr noundef nonnull align 8 dereferenceable(8) %y1, ptr noundef nonnull align 8 dereferenceable(8) %y2, ptr noundef nonnull align 8 dereferenceable(8) %y3) #3 align 2 {
entry:
  %retval = alloca i1, align 1
  %this.addr = alloca ptr, align 8
  %y1.addr = alloca ptr, align 8
  %y2.addr = alloca ptr, align 8
  %y3.addr = alloca ptr, align 8
  %z1moved = alloca double, align 8
  %distance = alloca double, align 8
  %scale = alloca double, align 8
  %y1moved = alloca double, align 8
  %residual = alloca double, align 8
  %cleanup.dest.slot = alloca i32, align 4
  store ptr %this, ptr %this.addr, align 8, !tbaa !3
  store ptr %y1, ptr %y1.addr, align 8, !tbaa !3
  store ptr %y2, ptr %y2.addr, align 8, !tbaa !3
  store ptr %y3, ptr %y3.addr, align 8, !tbaa !3
  %this1 = load ptr, ptr %this.addr, align 8
  call void @llvm.lifetime.start.p0(i64 8, ptr %z1moved) #15
  %z1_ = getelementptr inbounds nuw %"class.QuantLib::SphereCylinderOptimizer", ptr %this1, i32 0, i32 3
  %0 = load double, ptr %z1_, align 8, !tbaa !14
  %alpha_ = getelementptr inbounds nuw %"class.QuantLib::SphereCylinderOptimizer", ptr %this1, i32 0, i32 2
  %1 = load double, ptr %alpha_, align 8, !tbaa !13
  %sub = fsub double %0, %1
  store double %sub, ptr %z1moved, align 8, !tbaa !7
  call void @llvm.lifetime.start.p0(i64 8, ptr %distance) #15
  %2 = load double, ptr %z1moved, align 8, !tbaa !7
  %3 = load double, ptr %z1moved, align 8, !tbaa !7
  %z2_ = getelementptr inbounds nuw %"class.QuantLib::SphereCylinderOptimizer", ptr %this1, i32 0, i32 4
  %4 = load double, ptr %z2_, align 8, !tbaa !15
  %z2_2 = getelementptr inbounds nuw %"class.QuantLib::SphereCylinderOptimizer", ptr %this1, i32 0, i32 4
  %5 = load double, ptr %z2_2, align 8, !tbaa !15
  %mul3 = fmul double %4, %5
  %6 = call double @llvm.fmuladd.f64(double %2, double %3, double %mul3)
  %call = call double @sqrt(double noundef %6) #15, !tbaa !21
  store double %call, ptr %distance, align 8, !tbaa !7
  call void @llvm.lifetime.start.p0(i64 8, ptr %scale) #15
  %s_ = getelementptr inbounds nuw %"class.QuantLib::SphereCylinderOptimizer", ptr %this1, i32 0, i32 1
  %7 = load double, ptr %s_, align 8, !tbaa !12
  %8 = load double, ptr %distance, align 8, !tbaa !7
  %div = fdiv double %7, %8
  store double %div, ptr %scale, align 8, !tbaa !7
  call void @llvm.lifetime.start.p0(i64 8, ptr %y1moved) #15
  %9 = load double, ptr %z1moved, align 8, !tbaa !7
  %10 = load double, ptr %scale, align 8, !tbaa !7
  %mul = fmul double %9, %10
  store double %mul, ptr %y1moved, align 8, !tbaa !7
  %alpha_4 = getelementptr inbounds nuw %"class.QuantLib::SphereCylinderOptimizer", ptr %this1, i32 0, i32 2
  %11 = load double, ptr %alpha_4, align 8, !tbaa !13
  %12 = load double, ptr %y1moved, align 8, !tbaa !7
  %add = fadd double %11, %12
  %13 = load ptr, ptr %y1.addr, align 8, !tbaa !3
  store double %add, ptr %13, align 8, !tbaa !7
  %14 = load double, ptr %scale, align 8, !tbaa !7
  %z2_5 = getelementptr inbounds nuw %"class.QuantLib::SphereCylinderOptimizer", ptr %this1, i32 0, i32 4
  %15 = load double, ptr %z2_5, align 8, !tbaa !15
  %mul6 = fmul double %14, %15
  %16 = load ptr, ptr %y2.addr, align 8, !tbaa !3
  store double %mul6, ptr %16, align 8, !tbaa !7
  call void @llvm.lifetime.start.p0(i64 8, ptr %residual) #15
  %r_ = getelementptr inbounds nuw %"class.QuantLib::SphereCylinderOptimizer", ptr %this1, i32 0, i32 0
  %17 = load double, ptr %r_, align 8, !tbaa !9
  %r_7 = getelementptr inbounds nuw %"class.QuantLib::SphereCylinderOptimizer", ptr %this1, i32 0, i32 0
  %18 = load double, ptr %r_7, align 8, !tbaa !9
  %19 = load ptr, ptr %y1.addr, align 8, !tbaa !3
  %20 = load double, ptr %19, align 8, !tbaa !7
  %21 = load ptr, ptr %y1.addr, align 8, !tbaa !3
  %22 = load double, ptr %21, align 8, !tbaa !7
  %mul9 = fmul double %20, %22
  %neg = fneg double %mul9
  %23 = call double @llvm.fmuladd.f64(double %17, double %18, double %neg)
  %24 = load ptr, ptr %y2.addr, align 8, !tbaa !3
  %25 = load double, ptr %24, align 8, !tbaa !7
  %26 = load ptr, ptr %y2.addr, align 8, !tbaa !3
  %27 = load double, ptr %26, align 8, !tbaa !7
  %neg11 = fneg double %25
  %28 = call double @llvm.fmuladd.f64(double %neg11, double %27, double %23)
  store double %28, ptr %residual, align 8, !tbaa !7
  %29 = load double, ptr %residual, align 8, !tbaa !7
  %cmp = fcmp oge double %29, 0.000000e+00
  br i1 %cmp, label %if.then, label %if.end

if.then:                                          ; preds = %entry
  %30 = load double, ptr %residual, align 8, !tbaa !7
  %call12 = call double @sqrt(double noundef %30) #15, !tbaa !21
  %31 = load ptr, ptr %y3.addr, align 8, !tbaa !3
  store double %call12, ptr %31, align 8, !tbaa !7
  store i1 true, ptr %retval, align 1
  store i32 1, ptr %cleanup.dest.slot, align 4
  br label %cleanup

if.end:                                           ; preds = %entry
  %call13 = call noundef zeroext i1 @_ZNK8QuantLib23SphereCylinderOptimizer22isIntersectionNonEmptyEv(ptr noundef nonnull align 8 dereferenceable(80) %this1)
  br i1 %call13, label %if.end15, label %if.then14

if.then14:                                        ; preds = %if.end
  %32 = load ptr, ptr %y3.addr, align 8, !tbaa !3
  store double 0.000000e+00, ptr %32, align 8, !tbaa !7
  store i1 false, ptr %retval, align 1
  store i32 1, ptr %cleanup.dest.slot, align 4
  br label %cleanup

if.end15:                                         ; preds = %if.end
  %33 = load ptr, ptr %y3.addr, align 8, !tbaa !3
  store double 0.000000e+00, ptr %33, align 8, !tbaa !7
  %topValue_ = getelementptr inbounds nuw %"class.QuantLib::SphereCylinderOptimizer", ptr %this1, i32 0, i32 6
  %34 = load double, ptr %topValue_, align 8, !tbaa !19
  %35 = load ptr, ptr %y1.addr, align 8, !tbaa !3
  store double %34, ptr %35, align 8, !tbaa !7
  %r_16 = getelementptr inbounds nuw %"class.QuantLib::SphereCylinderOptimizer", ptr %this1, i32 0, i32 0
  %36 = load double, ptr %r_16, align 8, !tbaa !9
  %r_17 = getelementptr inbounds nuw %"class.QuantLib::SphereCylinderOptimizer", ptr %this1, i32 0, i32 0
  %37 = load double, ptr %r_17, align 8, !tbaa !9
  %38 = load ptr, ptr %y1.addr, align 8, !tbaa !3
  %39 = load double, ptr %38, align 8, !tbaa !7
  %40 = load ptr, ptr %y1.addr, align 8, !tbaa !3
  %41 = load double, ptr %40, align 8, !tbaa !7
  %mul19 = fmul double %39, %41
  %neg20 = fneg double %mul19
  %42 = call double @llvm.fmuladd.f64(double %36, double %37, double %neg20)
  %call21 = call double @sqrt(double noundef %42) #15, !tbaa !21
  %43 = load ptr, ptr %y2.addr, align 8, !tbaa !3
  store double %call21, ptr %43, align 8, !tbaa !7
  store i1 true, ptr %retval, align 1
  store i32 1, ptr %cleanup.dest.slot, align 4
  br label %cleanup

cleanup:                                          ; preds = %if.end15, %if.then14, %if.then
  call void @llvm.lifetime.end.p0(i64 8, ptr %residual) #15
  call void @llvm.lifetime.end.p0(i64 8, ptr %y1moved) #15
  call void @llvm.lifetime.end.p0(i64 8, ptr %scale) #15
  call void @llvm.lifetime.end.p0(i64 8, ptr %distance) #15
  call void @llvm.lifetime.end.p0(i64 8, ptr %z1moved) #15
  %44 = load i1, ptr %retval, align 1
  ret i1 %44
}