; Function Attrs: mustprogress nofree nounwind willreturn memory(write, argmem: readwrite) uwtable
define noundef zeroext i1 @_ZNK8QuantLib23SphereCylinderOptimizer16findByProjectionERdS1_S1_(ptr nocapture noundef nonnull readonly align 8 dereferenceable(80) %this, ptr nocapture noundef nonnull align 8 dereferenceable(8) %y1, ptr nocapture noundef nonnull writeonly align 8 dereferenceable(8) %y2, ptr nocapture noundef nonnull writeonly align 8 dereferenceable(8) %y3) local_unnamed_addr #10 align 2 {
entry:
  %z1_ = getelementptr inbounds nuw i8, ptr %this, i64 24
  %0 = load double, ptr %z1_, align 8, !tbaa !11
  %alpha_ = getelementptr inbounds nuw i8, ptr %this, i64 16
  %1 = load double, ptr %alpha_, align 8, !tbaa !10
  %sub = fsub double %0, %1
  %z2_ = getelementptr inbounds nuw i8, ptr %this, i64 32
  %2 = load double, ptr %z2_, align 8, !tbaa !12
  %mul3 = fmul double %2, %2
  %3 = tail call double @llvm.fmuladd.f64(double %sub, double %sub, double %mul3)
  %sqrt = tail call double @llvm.sqrt.f64(double %3)
  %s_ = getelementptr inbounds nuw i8, ptr %this, i64 8
  %4 = load double, ptr %s_, align 8, !tbaa !9
  %div = fdiv double %4, %sqrt
  %mul = fmul double %sub, %div
  %add = fadd double %1, %mul
  store double %add, ptr %y1, align 8, !tbaa !27
  %5 = load double, ptr %z2_, align 8, !tbaa !12
  %mul6 = fmul double %5, %div
  store double %mul6, ptr %y2, align 8, !tbaa !27
  %6 = load double, ptr %this, align 8, !tbaa !3
  %7 = load double, ptr %y1, align 8, !tbaa !27
  %8 = fneg double %7
  %neg = fmul double %7, %8
  %9 = tail call double @llvm.fmuladd.f64(double %6, double %6, double %neg)
  %neg11 = fneg double %mul6
  %10 = tail call double @llvm.fmuladd.f64(double %neg11, double %mul6, double %9)
  %cmp = fcmp ult double %10, 0.000000e+00
  br i1 %cmp, label %if.end, label %cleanup.sink.split

if.end:                                           ; preds = %entry
  %nonEmpty_.i = getelementptr inbounds nuw i8, ptr %this, i64 64
  %11 = load i8, ptr %nonEmpty_.i, align 8, !tbaa !22, !range !34, !noundef !35
  %loadedv.i = trunc nuw i8 %11 to i1
  store double 0.000000e+00, ptr %y3, align 8, !tbaa !27
  br i1 %loadedv.i, label %if.end15, label %cleanup

if.end15:                                         ; preds = %if.end
  %topValue_ = getelementptr inbounds nuw i8, ptr %this, i64 48
  %12 = load double, ptr %topValue_, align 8, !tbaa !23
  store double %12, ptr %y1, align 8, !tbaa !27
  %13 = load double, ptr %this, align 8, !tbaa !3
  %14 = fneg double %12
  %neg20 = fmul double %12, %14
  %15 = tail call double @llvm.fmuladd.f64(double %13, double %13, double %neg20)
  br label %cleanup.sink.split

cleanup.sink.split:                               ; preds = %entry, %if.end15
  %.sink = phi double [ %15, %if.end15 ], [ %10, %entry ]
  %y2.sink = phi ptr [ %y2, %if.end15 ], [ %y3, %entry ]
  %call21 = tail call double @sqrt(double noundef %.sink) #22, !tbaa !25
  store double %call21, ptr %y2.sink, align 8, !tbaa !27
  br label %cleanup

cleanup:                                          ; preds = %cleanup.sink.split, %if.end
  %retval.0 = phi i1 [ false, %if.end ], [ true, %cleanup.sink.split ]
  ret i1 %retval.0
}